; Listing generated by Microsoft (R) Optimizing Compiler Version 19.00.24215.1 

	TITLE	E:\Young\project\myPlot\QtGuiApplication3\QtGuiApplication3\GeneratedFiles\Debug\moc_MyKeyBoardButton.cpp
	.686P
	.XMM
	include listing.inc
	.model	flat

INCLUDELIB MSVCRTD
INCLUDELIB OLDNAMES

CONST	SEGMENT
$SG102787 DB	'C:\Qt\Qt5.9.2\5.9.2\msvc2015\include\QtCore/qmetatype.h', 00H
$SG102788 DB	'qRegisterNormalizedMetaType was called with a not normal'
	DB	'ized type name, please call qRegisterMetaType instead.', 00H
	ORG $+1
$SG102789 DB	'qRegisterNormalizedMetaType', 00H
	ORG $+4
?qt_meta_stringdata_MyKeyBoardButton@@3Uqt_meta_stringdata_MyKeyBoardButton_t@@B DD 0ffffffffH ; qt_meta_stringdata_MyKeyBoardButton
	DD	010H
	DD	00H
	DD	050H
	DD	0ffffffffH
	DD	06H
	DD	00H
	DD	051H
	DD	0ffffffffH
	DD	00H
	DD	00H
	DD	048H
	DD	0ffffffffH
	DD	07H
	DD	00H
	DD	039H
	DD	0ffffffffH
	DD	06H
	DD	00H
	DD	031H
	DB	'MyKeyBoardButton', 00H, 'zoomIn', 00H, 00H, 'zoomOut', 00H
	DB	'BoxOut', 00H
?qt_meta_data_MyKeyBoardButton@@3QBIB DD 07H		; qt_meta_data_MyKeyBoardButton
	DD	00H
	DD	00H
	DD	00H
	DD	03H
	DD	0eH
	DD	00H
	DD	00H
	DD	00H
	DD	00H
	DD	00H
	DD	00H
	DD	00H
	DD	00H
	DD	01H
	DD	00H
	DD	01dH
	DD	02H
	DD	08H
	DD	03H
	DD	00H
	DD	01eH
	DD	02H
	DD	08H
	DD	04H
	DD	00H
	DD	01fH
	DD	02H
	DD	08H
	DD	02bH
	DD	02bH
	DD	02bH
	DD	00H
$SG103089 DB	'C:\Qt\Qt5.9.2\5.9.2\msvc2015\include\QtCore/qmetatype.h', 00H
	ORG $+4
$SG103090 DB	'qRegisterNormalizedMetaType was called with a not normal'
	DB	'ized type name, please call qRegisterMetaType instead.', 00H
	ORG $+1
$SG103091 DB	'qRegisterNormalizedMetaType', 00H
$SG103391 DB	'C:\Qt\Qt5.9.2\5.9.2\msvc2015\include\QtCore/qmetatype.h', 00H
	ORG $+4
$SG103392 DB	'qRegisterNormalizedMetaType was called with a not normal'
	DB	'ized type name, please call qRegisterMetaType instead.', 00H
	ORG $+1
$SG103393 DB	'qRegisterNormalizedMetaType', 00H
CONST	ENDS
PUBLIC	?__empty_global_delete@@YAXPAX@Z		; __empty_global_delete
PUBLIC	?__empty_global_delete@@YAXPAXI@Z		; __empty_global_delete
PUBLIC	??C?$QScopedPointer@VQObjectData@@U?$QScopedPointerDeleter@VQObjectData@@@@@@QBEPAVQObjectData@@XZ ; QScopedPointer<QObjectData,QScopedPointerDeleter<QObjectData> >::operator->
PUBLIC	?metaObject@MyKeyBoardButton@@UBEPBUQMetaObject@@XZ ; MyKeyBoardButton::metaObject
PUBLIC	?qt_metacast@MyKeyBoardButton@@UAEPAXPBD@Z	; MyKeyBoardButton::qt_metacast
PUBLIC	?qt_metacall@MyKeyBoardButton@@UAEHW4Call@QMetaObject@@HPAPAX@Z ; MyKeyBoardButton::qt_metacall
PUBLIC	?qt_static_metacall@MyKeyBoardButton@@CAXPAVQObject@@W4Call@QMetaObject@@HPAPAX@Z ; MyKeyBoardButton::qt_static_metacall
PUBLIC	?staticMetaObject@MyKeyBoardButton@@2UQMetaObject@@B ; MyKeyBoardButton::staticMetaObject
EXTRN	_strcmp:PROC
EXTRN	__imp_?dynamicMetaObject@QObjectData@@QBEPAUQMetaObject@@XZ:PROC
EXTRN	__imp_?qt_metacast@QWidget@@UAEPAXPBD@Z:PROC
EXTRN	__imp_?qt_metacall@QWidget@@UAEHW4Call@QMetaObject@@HPAPAX@Z:PROC
EXTRN	?zoomIn@MyKeyBoardButton@@AAEXXZ:PROC		; MyKeyBoardButton::zoomIn
EXTRN	?zoomOut@MyKeyBoardButton@@AAEXXZ:PROC		; MyKeyBoardButton::zoomOut
EXTRN	?BoxOut@MyKeyBoardButton@@AAEXXZ:PROC		; MyKeyBoardButton::BoxOut
EXTRN	__imp_?staticMetaObject@QWidget@@2UQMetaObject@@B:BYTE
_BSS	SEGMENT
?staticMetaObject@MyKeyBoardButton@@2UQMetaObject@@B DB 018H DUP (?) ; MyKeyBoardButton::staticMetaObject
_BSS	ENDS
CRT$XCU	SEGMENT
??staticMetaObject$initializer$@MyKeyBoardButton@@2P6AXXZA@@3P6AXXZA DD FLAT:??__E?staticMetaObject@MyKeyBoardButton@@2UQMetaObject@@B@@YAXXZ ; ??staticMetaObject$initializer$@MyKeyBoardButton@@2P6AXXZA@@3P6AXXZA
CRT$XCU	ENDS
; Function compile flags: /Odtp
;	COMDAT ??__E?staticMetaObject@MyKeyBoardButton@@2UQMetaObject@@B@@YAXXZ
text$di	SEGMENT
??__E?staticMetaObject@MyKeyBoardButton@@2UQMetaObject@@B@@YAXXZ PROC ; `dynamic initializer for 'MyKeyBoardButton::staticMetaObject'', COMDAT
; File e:\young\project\myplot\qtguiapplication3\qtguiapplication3\generatedfiles\debug\moc_mykeyboardbutton.cpp
; Line 90
	push	ebp
	mov	ebp, esp
; Line 88
	mov	eax, DWORD PTR __imp_?staticMetaObject@QWidget@@2UQMetaObject@@B
	mov	DWORD PTR ?staticMetaObject@MyKeyBoardButton@@2UQMetaObject@@B, eax
	mov	DWORD PTR ?staticMetaObject@MyKeyBoardButton@@2UQMetaObject@@B+4, OFFSET ?qt_meta_stringdata_MyKeyBoardButton@@3Uqt_meta_stringdata_MyKeyBoardButton_t@@B
; Line 89
	mov	DWORD PTR ?staticMetaObject@MyKeyBoardButton@@2UQMetaObject@@B+8, OFFSET ?qt_meta_data_MyKeyBoardButton@@3QBIB
	mov	DWORD PTR ?staticMetaObject@MyKeyBoardButton@@2UQMetaObject@@B+12, OFFSET ?qt_static_metacall@MyKeyBoardButton@@CAXPAVQObject@@W4Call@QMetaObject@@HPAPAX@Z ; MyKeyBoardButton::qt_static_metacall
	mov	DWORD PTR ?staticMetaObject@MyKeyBoardButton@@2UQMetaObject@@B+16, 0
	mov	DWORD PTR ?staticMetaObject@MyKeyBoardButton@@2UQMetaObject@@B+20, 0
	pop	ebp
	ret	0
??__E?staticMetaObject@MyKeyBoardButton@@2UQMetaObject@@B@@YAXXZ ENDP ; `dynamic initializer for 'MyKeyBoardButton::staticMetaObject''
text$di	ENDS
; Function compile flags: /Odtp
_TEXT	SEGMENT
__t$1 = -8						; size = 4
tv69 = -4						; size = 4
__o$ = 8						; size = 4
__c$ = 12						; size = 4
__id$ = 16						; size = 4
__a$ = 20						; size = 4
?qt_static_metacall@MyKeyBoardButton@@CAXPAVQObject@@W4Call@QMetaObject@@HPAPAX@Z PROC ; MyKeyBoardButton::qt_static_metacall
; File e:\young\project\myplot\qtguiapplication3\qtguiapplication3\generatedfiles\debug\moc_mykeyboardbutton.cpp
; Line 73
	push	ebp
	mov	ebp, esp
	sub	esp, 8
; Line 74
	cmp	DWORD PTR __c$[ebp], 0
	jne	SHORT $LN1@qt_static_
; Line 75
	mov	eax, DWORD PTR __o$[ebp]
	mov	DWORD PTR __t$1[ebp], eax
; Line 77
	mov	ecx, DWORD PTR __id$[ebp]
	mov	DWORD PTR tv69[ebp], ecx
	cmp	DWORD PTR tv69[ebp], 0
	je	SHORT $LN5@qt_static_
	cmp	DWORD PTR tv69[ebp], 1
	je	SHORT $LN6@qt_static_
	cmp	DWORD PTR tv69[ebp], 2
	je	SHORT $LN7@qt_static_
	jmp	SHORT $LN1@qt_static_
$LN5@qt_static_:
; Line 78
	mov	ecx, DWORD PTR __t$1[ebp]
	call	?zoomIn@MyKeyBoardButton@@AAEXXZ	; MyKeyBoardButton::zoomIn
	jmp	SHORT $LN1@qt_static_
$LN6@qt_static_:
; Line 79
	mov	ecx, DWORD PTR __t$1[ebp]
	call	?zoomOut@MyKeyBoardButton@@AAEXXZ	; MyKeyBoardButton::zoomOut
	jmp	SHORT $LN1@qt_static_
$LN7@qt_static_:
; Line 80
	mov	ecx, DWORD PTR __t$1[ebp]
	call	?BoxOut@MyKeyBoardButton@@AAEXXZ	; MyKeyBoardButton::BoxOut
$LN1@qt_static_:
; Line 85
	mov	esp, ebp
	pop	ebp
	ret	0
?qt_static_metacall@MyKeyBoardButton@@CAXPAVQObject@@W4Call@QMetaObject@@HPAPAX@Z ENDP ; MyKeyBoardButton::qt_static_metacall
_TEXT	ENDS
; Function compile flags: /Odtp
_TEXT	SEGMENT
_this$ = -4						; size = 4
__c$ = 8						; size = 4
__id$ = 12						; size = 4
__a$ = 16						; size = 4
?qt_metacall@MyKeyBoardButton@@UAEHW4Call@QMetaObject@@HPAPAX@Z PROC ; MyKeyBoardButton::qt_metacall
; _this$ = ecx
; File e:\young\project\myplot\qtguiapplication3\qtguiapplication3\generatedfiles\debug\moc_mykeyboardbutton.cpp
; Line 107
	push	ebp
	mov	ebp, esp
	push	ecx
	mov	DWORD PTR _this$[ebp], ecx
; Line 108
	mov	eax, DWORD PTR __a$[ebp]
	push	eax
	mov	ecx, DWORD PTR __id$[ebp]
	push	ecx
	mov	edx, DWORD PTR __c$[ebp]
	push	edx
	mov	ecx, DWORD PTR _this$[ebp]
	call	DWORD PTR __imp_?qt_metacall@QWidget@@UAEHW4Call@QMetaObject@@HPAPAX@Z
	mov	DWORD PTR __id$[ebp], eax
; Line 109
	cmp	DWORD PTR __id$[ebp], 0
	jge	SHORT $LN2@qt_metacal
; Line 110
	mov	eax, DWORD PTR __id$[ebp]
	jmp	SHORT $LN1@qt_metacal
$LN2@qt_metacal:
; Line 111
	cmp	DWORD PTR __c$[ebp], 0
	jne	SHORT $LN3@qt_metacal
; Line 112
	cmp	DWORD PTR __id$[ebp], 3
	jge	SHORT $LN5@qt_metacal
; Line 113
	mov	eax, DWORD PTR __a$[ebp]
	push	eax
	mov	ecx, DWORD PTR __id$[ebp]
	push	ecx
	mov	edx, DWORD PTR __c$[ebp]
	push	edx
	mov	eax, DWORD PTR _this$[ebp]
	push	eax
	call	?qt_static_metacall@MyKeyBoardButton@@CAXPAVQObject@@W4Call@QMetaObject@@HPAPAX@Z ; MyKeyBoardButton::qt_static_metacall
	add	esp, 16					; 00000010H
$LN5@qt_metacal:
; Line 114
	mov	ecx, DWORD PTR __id$[ebp]
	sub	ecx, 3
	mov	DWORD PTR __id$[ebp], ecx
	jmp	SHORT $LN4@qt_metacal
$LN3@qt_metacal:
; Line 115
	cmp	DWORD PTR __c$[ebp], 12			; 0000000cH
	jne	SHORT $LN4@qt_metacal
; Line 116
	cmp	DWORD PTR __id$[ebp], 3
	jge	SHORT $LN7@qt_metacal
; Line 117
	mov	edx, 4
	imul	eax, edx, 0
	mov	ecx, DWORD PTR __a$[ebp]
	mov	edx, DWORD PTR [ecx+eax]
	mov	DWORD PTR [edx], -1
$LN7@qt_metacal:
; Line 118
	mov	eax, DWORD PTR __id$[ebp]
	sub	eax, 3
	mov	DWORD PTR __id$[ebp], eax
$LN4@qt_metacal:
; Line 120
	mov	eax, DWORD PTR __id$[ebp]
$LN1@qt_metacal:
; Line 121
	mov	esp, ebp
	pop	ebp
	ret	12					; 0000000cH
?qt_metacall@MyKeyBoardButton@@UAEHW4Call@QMetaObject@@HPAPAX@Z ENDP ; MyKeyBoardButton::qt_metacall
_TEXT	ENDS
; Function compile flags: /Odtp
_TEXT	SEGMENT
_this$ = -4						; size = 4
__clname$ = 8						; size = 4
?qt_metacast@MyKeyBoardButton@@UAEPAXPBD@Z PROC		; MyKeyBoardButton::qt_metacast
; _this$ = ecx
; File e:\young\project\myplot\qtguiapplication3\qtguiapplication3\generatedfiles\debug\moc_mykeyboardbutton.cpp
; Line 99
	push	ebp
	mov	ebp, esp
	push	ecx
	mov	DWORD PTR _this$[ebp], ecx
; Line 100
	cmp	DWORD PTR __clname$[ebp], 0
	jne	SHORT $LN2@qt_metacas
	xor	eax, eax
	jmp	SHORT $LN1@qt_metacas
$LN2@qt_metacas:
; Line 101
	push	OFFSET ?qt_meta_stringdata_MyKeyBoardButton@@3Uqt_meta_stringdata_MyKeyBoardButton_t@@B+80
	mov	eax, DWORD PTR __clname$[ebp]
	push	eax
	call	_strcmp
	add	esp, 8
	test	eax, eax
	jne	SHORT $LN3@qt_metacas
; Line 102
	mov	eax, DWORD PTR _this$[ebp]
	jmp	SHORT $LN1@qt_metacas
$LN3@qt_metacas:
; Line 103
	mov	ecx, DWORD PTR __clname$[ebp]
	push	ecx
	mov	ecx, DWORD PTR _this$[ebp]
	call	DWORD PTR __imp_?qt_metacast@QWidget@@UAEPAXPBD@Z
$LN1@qt_metacas:
; Line 104
	mov	esp, ebp
	pop	ebp
	ret	4
?qt_metacast@MyKeyBoardButton@@UAEPAXPBD@Z ENDP		; MyKeyBoardButton::qt_metacast
_TEXT	ENDS
; Function compile flags: /Odtp
_TEXT	SEGMENT
tv82 = -8						; size = 4
_this$ = -4						; size = 4
?metaObject@MyKeyBoardButton@@UBEPBUQMetaObject@@XZ PROC ; MyKeyBoardButton::metaObject
; _this$ = ecx
; File e:\young\project\myplot\qtguiapplication3\qtguiapplication3\generatedfiles\debug\moc_mykeyboardbutton.cpp
; Line 94
	push	ebp
	mov	ebp, esp
	sub	esp, 8
	mov	DWORD PTR _this$[ebp], ecx
; Line 95
	mov	ecx, DWORD PTR _this$[ebp]
	add	ecx, 4
	call	??C?$QScopedPointer@VQObjectData@@U?$QScopedPointerDeleter@VQObjectData@@@@@@QBEPAVQObjectData@@XZ ; QScopedPointer<QObjectData,QScopedPointerDeleter<QObjectData> >::operator->
	cmp	DWORD PTR [eax+24], 0
	je	SHORT $LN3@metaObject
	mov	ecx, DWORD PTR _this$[ebp]
	add	ecx, 4
	call	??C?$QScopedPointer@VQObjectData@@U?$QScopedPointerDeleter@VQObjectData@@@@@@QBEPAVQObjectData@@XZ ; QScopedPointer<QObjectData,QScopedPointerDeleter<QObjectData> >::operator->
	mov	ecx, eax
	call	DWORD PTR __imp_?dynamicMetaObject@QObjectData@@QBEPAUQMetaObject@@XZ
	mov	DWORD PTR tv82[ebp], eax
	jmp	SHORT $LN4@metaObject
$LN3@metaObject:
	mov	DWORD PTR tv82[ebp], OFFSET ?staticMetaObject@MyKeyBoardButton@@2UQMetaObject@@B ; MyKeyBoardButton::staticMetaObject
$LN4@metaObject:
	mov	eax, DWORD PTR tv82[ebp]
; Line 96
	mov	esp, ebp
	pop	ebp
	ret	0
?metaObject@MyKeyBoardButton@@UBEPBUQMetaObject@@XZ ENDP ; MyKeyBoardButton::metaObject
_TEXT	ENDS
; Function compile flags: /Odtp
;	COMDAT ??C?$QScopedPointer@VQObjectData@@U?$QScopedPointerDeleter@VQObjectData@@@@@@QBEPAVQObjectData@@XZ
_TEXT	SEGMENT
_this$ = -4						; size = 4
??C?$QScopedPointer@VQObjectData@@U?$QScopedPointerDeleter@VQObjectData@@@@@@QBEPAVQObjectData@@XZ PROC ; QScopedPointer<QObjectData,QScopedPointerDeleter<QObjectData> >::operator->, COMDAT
; _this$ = ecx
; File c:\qt\qt5.9.2\5.9.2\msvc2015\include\qtcore\qscopedpointer.h
; Line 117
	push	ebp
	mov	ebp, esp
	push	ecx
	mov	DWORD PTR _this$[ebp], ecx
; Line 118
	mov	eax, DWORD PTR _this$[ebp]
	mov	eax, DWORD PTR [eax]
; Line 119
	mov	esp, ebp
	pop	ebp
	ret	0
??C?$QScopedPointer@VQObjectData@@U?$QScopedPointerDeleter@VQObjectData@@@@@@QBEPAVQObjectData@@XZ ENDP ; QScopedPointer<QObjectData,QScopedPointerDeleter<QObjectData> >::operator->
_TEXT	ENDS
; Function compile flags: /Odtp
;	COMDAT ?__empty_global_delete@@YAXPAXI@Z
_TEXT	SEGMENT
___formal$ = 8						; size = 4
___formal$ = 12						; size = 4
?__empty_global_delete@@YAXPAXI@Z PROC			; __empty_global_delete, COMDAT
; File e:\young\project\myplot\qtguiapplication3\qtguiapplication3\generatedfiles\debug\moc_mykeyboardbutton.cpp
; Line 124
	push	ebp
	mov	ebp, esp
	pop	ebp
	ret	0
?__empty_global_delete@@YAXPAXI@Z ENDP			; __empty_global_delete
_TEXT	ENDS
; Function compile flags: /Odtp
;	COMDAT ?__empty_global_delete@@YAXPAX@Z
_TEXT	SEGMENT
___formal$ = 8						; size = 4
?__empty_global_delete@@YAXPAX@Z PROC			; __empty_global_delete, COMDAT
; File e:\young\project\myplot\qtguiapplication3\qtguiapplication3\generatedfiles\debug\moc_mykeyboardbutton.cpp
; Line 124
	push	ebp
	mov	ebp, esp
	pop	ebp
	ret	0
?__empty_global_delete@@YAXPAX@Z ENDP			; __empty_global_delete
_TEXT	ENDS
END
