; Listing generated by Microsoft (R) Optimizing Compiler Version 19.00.24215.1 

	TITLE	E:\Young\project\myPlot\QtGuiApplication3\SoftKeyboard_dll\SoftKeyboard_dll\GeneratedFiles\Debug\moc_SoftKeyboard.cpp
	.686P
	.XMM
	include listing.inc
	.model	flat

INCLUDELIB MSVCRTD
INCLUDELIB OLDNAMES

CONST	SEGMENT
$SG122193 DB	'C:\Qt\Qt5.9.2\5.9.2\msvc2015\include\QtCore/qmetatype.h', 00H
$SG122194 DB	'qRegisterNormalizedMetaType was called with a not normal'
	DB	'ized type name, please call qRegisterMetaType instead.', 00H
	ORG $+1
$SG122195 DB	'qRegisterNormalizedMetaType', 00H
$SG124446 DB	'C:\Qt\Qt5.9.2\5.9.2\msvc2015\include\QtCore/qmetatype.h', 00H
	ORG $+4
$SG124447 DB	'qRegisterNormalizedMetaType was called with a not normal'
	DB	'ized type name, please call qRegisterMetaType instead.', 00H
	ORG $+1
$SG124448 DB	'qRegisterNormalizedMetaType', 00H
$SG122495 DB	'C:\Qt\Qt5.9.2\5.9.2\msvc2015\include\QtCore/qmetatype.h', 00H
	ORG $+4
$SG122496 DB	'qRegisterNormalizedMetaType was called with a not normal'
	DB	'ized type name, please call qRegisterMetaType instead.', 00H
	ORG $+1
$SG122497 DB	'qRegisterNormalizedMetaType', 00H
$SG123688 DB	'C:\Qt\Qt5.9.2\5.9.2\msvc2015\include\QtCore/qmetatype.h', 00H
	ORG $+4
$SG123689 DB	'qRegisterNormalizedMetaType was called with a not normal'
	DB	'ized type name, please call qRegisterMetaType instead.', 00H
	ORG $+1
$SG123690 DB	'qRegisterNormalizedMetaType', 00H
	ORG $+4
?qt_meta_stringdata_CSoftKeyboard@@3Uqt_meta_stringdata_CSoftKeyboard_t@@B DD 0ffffffffH ; qt_meta_stringdata_CSoftKeyboard
	DD	0dH
	DD	00H
	DD	030H
	DD	0ffffffffH
	DD	0eH
	DD	00H
	DD	02eH
	DD	0ffffffffH
	DD	00H
	DD	00H
	DD	02dH
	DB	'CSoftKeyboard', 00H, 'SlotBtnClicked', 00H, 00H
	ORG $+2
?qt_meta_data_CSoftKeyboard@@3QBIB DD 07H		; qt_meta_data_CSoftKeyboard
	DD	00H
	DD	00H
	DD	00H
	DD	01H
	DD	0eH
	DD	00H
	DD	00H
	DD	00H
	DD	00H
	DD	00H
	DD	00H
	DD	00H
	DD	00H
	DD	01H
	DD	00H
	DD	013H
	DD	02H
	DD	08H
	DD	02bH
	DD	00H
$SG122797 DB	'C:\Qt\Qt5.9.2\5.9.2\msvc2015\include\QtCore/qmetatype.h', 00H
	ORG $+4
$SG122798 DB	'qRegisterNormalizedMetaType was called with a not normal'
	DB	'ized type name, please call qRegisterMetaType instead.', 00H
	ORG $+1
$SG122799 DB	'qRegisterNormalizedMetaType', 00H
CONST	ENDS
PUBLIC	?__empty_global_delete@@YAXPAX@Z		; __empty_global_delete
PUBLIC	?__empty_global_delete@@YAXPAXI@Z		; __empty_global_delete
PUBLIC	??C?$QScopedPointer@VQObjectData@@U?$QScopedPointerDeleter@VQObjectData@@@@@@QBEPAVQObjectData@@XZ ; QScopedPointer<QObjectData,QScopedPointerDeleter<QObjectData> >::operator->
PUBLIC	?metaObject@CSoftKeyboard@@UBEPBUQMetaObject@@XZ ; CSoftKeyboard::metaObject
PUBLIC	?qt_metacast@CSoftKeyboard@@UAEPAXPBD@Z		; CSoftKeyboard::qt_metacast
PUBLIC	?qt_metacall@CSoftKeyboard@@UAEHW4Call@QMetaObject@@HPAPAX@Z ; CSoftKeyboard::qt_metacall
PUBLIC	?tr@CSoftKeyboard@@SA?AVQString@@PBD0H@Z	; CSoftKeyboard::tr
PUBLIC	?trUtf8@CSoftKeyboard@@SA?AVQString@@PBD0H@Z	; CSoftKeyboard::trUtf8
PUBLIC	?qt_static_metacall@CSoftKeyboard@@CAXPAVQObject@@W4Call@QMetaObject@@HPAPAX@Z ; CSoftKeyboard::qt_static_metacall
PUBLIC	?staticMetaObject@CSoftKeyboard@@2UQMetaObject@@B ; CSoftKeyboard::staticMetaObject
EXTRN	_strcmp:PROC
EXTRN	__imp_?tr@QMetaObject@@QBE?AVQString@@PBD0H@Z:PROC
EXTRN	__imp_?dynamicMetaObject@QObjectData@@QBEPAUQMetaObject@@XZ:PROC
EXTRN	__imp_?qt_metacast@QDialog@@UAEPAXPBD@Z:PROC
EXTRN	__imp_?qt_metacall@QDialog@@UAEHW4Call@QMetaObject@@HPAPAX@Z:PROC
EXTRN	?SlotBtnClicked@CSoftKeyboard@@AAEXXZ:PROC	; CSoftKeyboard::SlotBtnClicked
EXTRN	__imp_?staticMetaObject@QDialog@@2UQMetaObject@@B:BYTE
_BSS	SEGMENT
?staticMetaObject@CSoftKeyboard@@2UQMetaObject@@B DB 018H DUP (?) ; CSoftKeyboard::staticMetaObject
_BSS	ENDS
CRT$XCU	SEGMENT
??staticMetaObject$initializer$@CSoftKeyboard@@2P6AXXZA@@3P6AXXZA DD FLAT:??__E?staticMetaObject@CSoftKeyboard@@2UQMetaObject@@B@@YAXXZ ; ??staticMetaObject$initializer$@CSoftKeyboard@@2P6AXXZA@@3P6AXXZA
CRT$XCU	ENDS
; Function compile flags: /Odtp
;	COMDAT ??__E?staticMetaObject@CSoftKeyboard@@2UQMetaObject@@B@@YAXXZ
text$di	SEGMENT
??__E?staticMetaObject@CSoftKeyboard@@2UQMetaObject@@B@@YAXXZ PROC ; `dynamic initializer for 'CSoftKeyboard::staticMetaObject'', COMDAT
; File e:\young\project\myplot\qtguiapplication3\softkeyboard_dll\softkeyboard_dll\generatedfiles\debug\moc_softkeyboard.cpp
; Line 81
	push	ebp
	mov	ebp, esp
; Line 79
	mov	eax, DWORD PTR __imp_?staticMetaObject@QDialog@@2UQMetaObject@@B
	mov	DWORD PTR ?staticMetaObject@CSoftKeyboard@@2UQMetaObject@@B, eax
	mov	DWORD PTR ?staticMetaObject@CSoftKeyboard@@2UQMetaObject@@B+4, OFFSET ?qt_meta_stringdata_CSoftKeyboard@@3Uqt_meta_stringdata_CSoftKeyboard_t@@B
; Line 80
	mov	DWORD PTR ?staticMetaObject@CSoftKeyboard@@2UQMetaObject@@B+8, OFFSET ?qt_meta_data_CSoftKeyboard@@3QBIB
	mov	DWORD PTR ?staticMetaObject@CSoftKeyboard@@2UQMetaObject@@B+12, OFFSET ?qt_static_metacall@CSoftKeyboard@@CAXPAVQObject@@W4Call@QMetaObject@@HPAPAX@Z ; CSoftKeyboard::qt_static_metacall
	mov	DWORD PTR ?staticMetaObject@CSoftKeyboard@@2UQMetaObject@@B+16, 0
	mov	DWORD PTR ?staticMetaObject@CSoftKeyboard@@2UQMetaObject@@B+20, 0
	pop	ebp
	ret	0
??__E?staticMetaObject@CSoftKeyboard@@2UQMetaObject@@B@@YAXXZ ENDP ; `dynamic initializer for 'CSoftKeyboard::staticMetaObject''
text$di	ENDS
; Function compile flags: /Odtp
_TEXT	SEGMENT
__t$1 = -8						; size = 4
tv69 = -4						; size = 4
__o$ = 8						; size = 4
__c$ = 12						; size = 4
__id$ = 16						; size = 4
__a$ = 20						; size = 4
?qt_static_metacall@CSoftKeyboard@@CAXPAVQObject@@W4Call@QMetaObject@@HPAPAX@Z PROC ; CSoftKeyboard::qt_static_metacall
; File e:\young\project\myplot\qtguiapplication3\softkeyboard_dll\softkeyboard_dll\generatedfiles\debug\moc_softkeyboard.cpp
; Line 66
	push	ebp
	mov	ebp, esp
	sub	esp, 8
; Line 67
	cmp	DWORD PTR __c$[ebp], 0
	jne	SHORT $LN1@qt_static_
; Line 68
	mov	eax, DWORD PTR __o$[ebp]
	mov	DWORD PTR __t$1[ebp], eax
; Line 70
	mov	ecx, DWORD PTR __id$[ebp]
	mov	DWORD PTR tv69[ebp], ecx
	cmp	DWORD PTR tv69[ebp], 0
	je	SHORT $LN5@qt_static_
	jmp	SHORT $LN1@qt_static_
$LN5@qt_static_:
; Line 71
	mov	ecx, DWORD PTR __t$1[ebp]
	call	?SlotBtnClicked@CSoftKeyboard@@AAEXXZ	; CSoftKeyboard::SlotBtnClicked
$LN1@qt_static_:
; Line 76
	mov	esp, ebp
	pop	ebp
	ret	0
?qt_static_metacall@CSoftKeyboard@@CAXPAVQObject@@W4Call@QMetaObject@@HPAPAX@Z ENDP ; CSoftKeyboard::qt_static_metacall
_TEXT	ENDS
; Function compile flags: /Odtp
;	COMDAT ?trUtf8@CSoftKeyboard@@SA?AVQString@@PBD0H@Z
_TEXT	SEGMENT
$T1 = -4						; size = 4
___$ReturnUdt$ = 8					; size = 4
_s$ = 12						; size = 4
_c$ = 16						; size = 4
_n$ = 20						; size = 4
?trUtf8@CSoftKeyboard@@SA?AVQString@@PBD0H@Z PROC	; CSoftKeyboard::trUtf8, COMDAT
; File e:\young\project\myplot\qtguiapplication3\softkeyboard_dll\softkeyboard_dll\softkeyboard.h
; Line 18
	push	ebp
	mov	ebp, esp
	push	ecx
	mov	DWORD PTR $T1[ebp], 0
	mov	eax, DWORD PTR _n$[ebp]
	push	eax
	mov	ecx, DWORD PTR _c$[ebp]
	push	ecx
	mov	edx, DWORD PTR _s$[ebp]
	push	edx
	mov	eax, DWORD PTR ___$ReturnUdt$[ebp]
	push	eax
	mov	ecx, OFFSET ?staticMetaObject@CSoftKeyboard@@2UQMetaObject@@B ; CSoftKeyboard::staticMetaObject
	call	DWORD PTR __imp_?tr@QMetaObject@@QBE?AVQString@@PBD0H@Z
	mov	ecx, DWORD PTR $T1[ebp]
	or	ecx, 1
	mov	DWORD PTR $T1[ebp], ecx
	mov	eax, DWORD PTR ___$ReturnUdt$[ebp]
	mov	esp, ebp
	pop	ebp
	ret	0
?trUtf8@CSoftKeyboard@@SA?AVQString@@PBD0H@Z ENDP	; CSoftKeyboard::trUtf8
_TEXT	ENDS
; Function compile flags: /Odtp
;	COMDAT ?tr@CSoftKeyboard@@SA?AVQString@@PBD0H@Z
_TEXT	SEGMENT
$T1 = -4						; size = 4
___$ReturnUdt$ = 8					; size = 4
_s$ = 12						; size = 4
_c$ = 16						; size = 4
_n$ = 20						; size = 4
?tr@CSoftKeyboard@@SA?AVQString@@PBD0H@Z PROC		; CSoftKeyboard::tr, COMDAT
; File e:\young\project\myplot\qtguiapplication3\softkeyboard_dll\softkeyboard_dll\softkeyboard.h
; Line 18
	push	ebp
	mov	ebp, esp
	push	ecx
	mov	DWORD PTR $T1[ebp], 0
	mov	eax, DWORD PTR _n$[ebp]
	push	eax
	mov	ecx, DWORD PTR _c$[ebp]
	push	ecx
	mov	edx, DWORD PTR _s$[ebp]
	push	edx
	mov	eax, DWORD PTR ___$ReturnUdt$[ebp]
	push	eax
	mov	ecx, OFFSET ?staticMetaObject@CSoftKeyboard@@2UQMetaObject@@B ; CSoftKeyboard::staticMetaObject
	call	DWORD PTR __imp_?tr@QMetaObject@@QBE?AVQString@@PBD0H@Z
	mov	ecx, DWORD PTR $T1[ebp]
	or	ecx, 1
	mov	DWORD PTR $T1[ebp], ecx
	mov	eax, DWORD PTR ___$ReturnUdt$[ebp]
	mov	esp, ebp
	pop	ebp
	ret	0
?tr@CSoftKeyboard@@SA?AVQString@@PBD0H@Z ENDP		; CSoftKeyboard::tr
_TEXT	ENDS
; Function compile flags: /Odtp
_TEXT	SEGMENT
_this$ = -4						; size = 4
__c$ = 8						; size = 4
__id$ = 12						; size = 4
__a$ = 16						; size = 4
?qt_metacall@CSoftKeyboard@@UAEHW4Call@QMetaObject@@HPAPAX@Z PROC ; CSoftKeyboard::qt_metacall
; _this$ = ecx
; File e:\young\project\myplot\qtguiapplication3\softkeyboard_dll\softkeyboard_dll\generatedfiles\debug\moc_softkeyboard.cpp
; Line 98
	push	ebp
	mov	ebp, esp
	push	ecx
	mov	DWORD PTR _this$[ebp], ecx
; Line 99
	mov	eax, DWORD PTR __a$[ebp]
	push	eax
	mov	ecx, DWORD PTR __id$[ebp]
	push	ecx
	mov	edx, DWORD PTR __c$[ebp]
	push	edx
	mov	ecx, DWORD PTR _this$[ebp]
	call	DWORD PTR __imp_?qt_metacall@QDialog@@UAEHW4Call@QMetaObject@@HPAPAX@Z
	mov	DWORD PTR __id$[ebp], eax
; Line 100
	cmp	DWORD PTR __id$[ebp], 0
	jge	SHORT $LN2@qt_metacal
; Line 101
	mov	eax, DWORD PTR __id$[ebp]
	jmp	SHORT $LN1@qt_metacal
$LN2@qt_metacal:
; Line 102
	cmp	DWORD PTR __c$[ebp], 0
	jne	SHORT $LN3@qt_metacal
; Line 103
	cmp	DWORD PTR __id$[ebp], 1
	jge	SHORT $LN5@qt_metacal
; Line 104
	mov	eax, DWORD PTR __a$[ebp]
	push	eax
	mov	ecx, DWORD PTR __id$[ebp]
	push	ecx
	mov	edx, DWORD PTR __c$[ebp]
	push	edx
	mov	eax, DWORD PTR _this$[ebp]
	push	eax
	call	?qt_static_metacall@CSoftKeyboard@@CAXPAVQObject@@W4Call@QMetaObject@@HPAPAX@Z ; CSoftKeyboard::qt_static_metacall
	add	esp, 16					; 00000010H
$LN5@qt_metacal:
; Line 105
	mov	ecx, DWORD PTR __id$[ebp]
	sub	ecx, 1
	mov	DWORD PTR __id$[ebp], ecx
	jmp	SHORT $LN4@qt_metacal
$LN3@qt_metacal:
; Line 106
	cmp	DWORD PTR __c$[ebp], 12			; 0000000cH
	jne	SHORT $LN4@qt_metacal
; Line 107
	cmp	DWORD PTR __id$[ebp], 1
	jge	SHORT $LN7@qt_metacal
; Line 108
	mov	edx, 4
	imul	eax, edx, 0
	mov	ecx, DWORD PTR __a$[ebp]
	mov	edx, DWORD PTR [ecx+eax]
	mov	DWORD PTR [edx], -1
$LN7@qt_metacal:
; Line 109
	mov	eax, DWORD PTR __id$[ebp]
	sub	eax, 1
	mov	DWORD PTR __id$[ebp], eax
$LN4@qt_metacal:
; Line 111
	mov	eax, DWORD PTR __id$[ebp]
$LN1@qt_metacal:
; Line 112
	mov	esp, ebp
	pop	ebp
	ret	12					; 0000000cH
?qt_metacall@CSoftKeyboard@@UAEHW4Call@QMetaObject@@HPAPAX@Z ENDP ; CSoftKeyboard::qt_metacall
_TEXT	ENDS
; Function compile flags: /Odtp
_TEXT	SEGMENT
_this$ = -4						; size = 4
__clname$ = 8						; size = 4
?qt_metacast@CSoftKeyboard@@UAEPAXPBD@Z PROC		; CSoftKeyboard::qt_metacast
; _this$ = ecx
; File e:\young\project\myplot\qtguiapplication3\softkeyboard_dll\softkeyboard_dll\generatedfiles\debug\moc_softkeyboard.cpp
; Line 90
	push	ebp
	mov	ebp, esp
	push	ecx
	mov	DWORD PTR _this$[ebp], ecx
; Line 91
	cmp	DWORD PTR __clname$[ebp], 0
	jne	SHORT $LN2@qt_metacas
	xor	eax, eax
	jmp	SHORT $LN1@qt_metacas
$LN2@qt_metacas:
; Line 92
	push	OFFSET ?qt_meta_stringdata_CSoftKeyboard@@3Uqt_meta_stringdata_CSoftKeyboard_t@@B+48
	mov	eax, DWORD PTR __clname$[ebp]
	push	eax
	call	_strcmp
	add	esp, 8
	test	eax, eax
	jne	SHORT $LN3@qt_metacas
; Line 93
	mov	eax, DWORD PTR _this$[ebp]
	jmp	SHORT $LN1@qt_metacas
$LN3@qt_metacas:
; Line 94
	mov	ecx, DWORD PTR __clname$[ebp]
	push	ecx
	mov	ecx, DWORD PTR _this$[ebp]
	call	DWORD PTR __imp_?qt_metacast@QDialog@@UAEPAXPBD@Z
$LN1@qt_metacas:
; Line 95
	mov	esp, ebp
	pop	ebp
	ret	4
?qt_metacast@CSoftKeyboard@@UAEPAXPBD@Z ENDP		; CSoftKeyboard::qt_metacast
_TEXT	ENDS
; Function compile flags: /Odtp
_TEXT	SEGMENT
tv82 = -8						; size = 4
_this$ = -4						; size = 4
?metaObject@CSoftKeyboard@@UBEPBUQMetaObject@@XZ PROC	; CSoftKeyboard::metaObject
; _this$ = ecx
; File e:\young\project\myplot\qtguiapplication3\softkeyboard_dll\softkeyboard_dll\generatedfiles\debug\moc_softkeyboard.cpp
; Line 85
	push	ebp
	mov	ebp, esp
	sub	esp, 8
	mov	DWORD PTR _this$[ebp], ecx
; Line 86
	mov	ecx, DWORD PTR _this$[ebp]
	add	ecx, 4
	call	??C?$QScopedPointer@VQObjectData@@U?$QScopedPointerDeleter@VQObjectData@@@@@@QBEPAVQObjectData@@XZ ; QScopedPointer<QObjectData,QScopedPointerDeleter<QObjectData> >::operator->
	cmp	DWORD PTR [eax+24], 0
	je	SHORT $LN3@metaObject
	mov	ecx, DWORD PTR _this$[ebp]
	add	ecx, 4
	call	??C?$QScopedPointer@VQObjectData@@U?$QScopedPointerDeleter@VQObjectData@@@@@@QBEPAVQObjectData@@XZ ; QScopedPointer<QObjectData,QScopedPointerDeleter<QObjectData> >::operator->
	mov	ecx, eax
	call	DWORD PTR __imp_?dynamicMetaObject@QObjectData@@QBEPAUQMetaObject@@XZ
	mov	DWORD PTR tv82[ebp], eax
	jmp	SHORT $LN4@metaObject
$LN3@metaObject:
	mov	DWORD PTR tv82[ebp], OFFSET ?staticMetaObject@CSoftKeyboard@@2UQMetaObject@@B ; CSoftKeyboard::staticMetaObject
$LN4@metaObject:
	mov	eax, DWORD PTR tv82[ebp]
; Line 87
	mov	esp, ebp
	pop	ebp
	ret	0
?metaObject@CSoftKeyboard@@UBEPBUQMetaObject@@XZ ENDP	; CSoftKeyboard::metaObject
_TEXT	ENDS
; Function compile flags: /Odtp
;	COMDAT ??C?$QScopedPointer@VQObjectData@@U?$QScopedPointerDeleter@VQObjectData@@@@@@QBEPAVQObjectData@@XZ
_TEXT	SEGMENT
_this$ = -4						; size = 4
??C?$QScopedPointer@VQObjectData@@U?$QScopedPointerDeleter@VQObjectData@@@@@@QBEPAVQObjectData@@XZ PROC ; QScopedPointer<QObjectData,QScopedPointerDeleter<QObjectData> >::operator->, COMDAT
; _this$ = ecx
; File c:\qt\qt5.9.2\5.9.2\msvc2015\include\qtcore\qscopedpointer.h
; Line 117
	push	ebp
	mov	ebp, esp
	push	ecx
	mov	DWORD PTR _this$[ebp], ecx
; Line 118
	mov	eax, DWORD PTR _this$[ebp]
	mov	eax, DWORD PTR [eax]
; Line 119
	mov	esp, ebp
	pop	ebp
	ret	0
??C?$QScopedPointer@VQObjectData@@U?$QScopedPointerDeleter@VQObjectData@@@@@@QBEPAVQObjectData@@XZ ENDP ; QScopedPointer<QObjectData,QScopedPointerDeleter<QObjectData> >::operator->
_TEXT	ENDS
; Function compile flags: /Odtp
;	COMDAT ?__empty_global_delete@@YAXPAXI@Z
_TEXT	SEGMENT
___formal$ = 8						; size = 4
___formal$ = 12						; size = 4
?__empty_global_delete@@YAXPAXI@Z PROC			; __empty_global_delete, COMDAT
; File e:\young\project\myplot\qtguiapplication3\softkeyboard_dll\softkeyboard_dll\generatedfiles\debug\moc_softkeyboard.cpp
; Line 115
	push	ebp
	mov	ebp, esp
	pop	ebp
	ret	0
?__empty_global_delete@@YAXPAXI@Z ENDP			; __empty_global_delete
_TEXT	ENDS
; Function compile flags: /Odtp
;	COMDAT ?__empty_global_delete@@YAXPAX@Z
_TEXT	SEGMENT
___formal$ = 8						; size = 4
?__empty_global_delete@@YAXPAX@Z PROC			; __empty_global_delete, COMDAT
; File e:\young\project\myplot\qtguiapplication3\softkeyboard_dll\softkeyboard_dll\generatedfiles\debug\moc_softkeyboard.cpp
; Line 115
	push	ebp
	mov	ebp, esp
	pop	ebp
	ret	0
?__empty_global_delete@@YAXPAX@Z ENDP			; __empty_global_delete
_TEXT	ENDS
END
